; Function Attrs: mustprogress nounwind uwtable
define internal void @_ZN9grpc_core12_GLOBAL__N_120Chttp2ServerListener16ActiveConnection16HandshakingStateD2Ev(ptr nocapture noundef nonnull align 8 dereferenceable(120) %this) unnamed_addr #5 align 2 personality ptr @__gxx_personality_v0 {
entry:
  store ptr getelementptr inbounds ({ [5 x ptr] }, ptr @_ZTVN9grpc_core12_GLOBAL__N_120Chttp2ServerListener16ActiveConnection16HandshakingStateE, i64 0, i32 0, i64 2), ptr %this, align 8
  %interested_parties_ = getelementptr inbounds i8, ptr %this, i64 112
  %0 = load ptr, ptr %interested_parties_, align 8
  %accepting_pollset_ = getelementptr inbounds i8, ptr %this, i64 24
  %1 = load ptr, ptr %accepting_pollset_, align 8
  invoke void @_Z28grpc_pollset_set_del_pollsetP16grpc_pollset_setP12grpc_pollset(ptr noundef %0, ptr noundef %1)
          to label %invoke.cont unwind label %terminate.lpad

invoke.cont:                                      ; preds = %entry
  %2 = load ptr, ptr %interested_parties_, align 8
  invoke void @_Z24grpc_pollset_set_destroyP16grpc_pollset_set(ptr noundef %2)
          to label %invoke.cont3 unwind label %terminate.lpad

invoke.cont3:                                     ; preds = %invoke.cont
  %acceptor_ = getelementptr inbounds i8, ptr %this, i64 32
  %3 = load ptr, ptr %acceptor_, align 8
  invoke void @gpr_free(ptr noundef %3)
          to label %invoke.cont4 unwind label %terminate.lpad

invoke.cont4:                                     ; preds = %invoke.cont3
  %handshake_mgr_ = getelementptr inbounds i8, ptr %this, i64 40
  %4 = load ptr, ptr %handshake_mgr_, align 8
  %cmp.not.i = icmp eq ptr %4, null
  br i1 %cmp.not.i, label %_ZN9grpc_core13RefCountedPtrINS_16HandshakeManagerEED2Ev.exit, label %if.then.i

if.then.i:                                        ; preds = %invoke.cont4
  %refs_.i.i = getelementptr inbounds i8, ptr %4, i64 8
  %5 = atomicrmw sub ptr %refs_.i.i, i64 1 acq_rel, align 8
  %cmp.i.i.i = icmp eq i64 %5, 1
  br i1 %cmp.i.i.i, label %if.then.i.i, label %_ZN9grpc_core13RefCountedPtrINS_16HandshakeManagerEED2Ev.exit

if.then.i.i:                                      ; preds = %if.then.i
  %vtable.i.i.i = load ptr, ptr %4, align 8
  %vfn.i.i.i = getelementptr inbounds i8, ptr %vtable.i.i.i, i64 8
  %6 = load ptr, ptr %vfn.i.i.i, align 8
  tail call void %6(ptr noundef nonnull align 8 dereferenceable(216) %4) #25
  br label %_ZN9grpc_core13RefCountedPtrINS_16HandshakeManagerEED2Ev.exit

_ZN9grpc_core13RefCountedPtrINS_16HandshakeManagerEED2Ev.exit: ; preds = %invoke.cont4, %if.then.i, %if.then.i.i
  %connection_ = getelementptr inbounds i8, ptr %this, i64 16
  %connection_.val = load ptr, ptr %connection_, align 8
  %cmp.not.i1 = icmp eq ptr %connection_.val, null
  br i1 %cmp.not.i1, label %_ZN9grpc_core13RefCountedPtrINS_12_GLOBAL__N_120Chttp2ServerListener16ActiveConnectionEED2Ev.exit, label %if.then.i2

if.then.i2:                                       ; preds = %_ZN9grpc_core13RefCountedPtrINS_16HandshakeManagerEED2Ev.exit
  %refs_.i.i3 = getelementptr inbounds i8, ptr %connection_.val, i64 8
  %7 = atomicrmw sub ptr %refs_.i.i3, i64 1 acq_rel, align 8
  %cmp.i.i.i4 = icmp eq i64 %7, 1
  br i1 %cmp.i.i.i4, label %if.then.i.i5, label %_ZN9grpc_core13RefCountedPtrINS_12_GLOBAL__N_120Chttp2ServerListener16ActiveConnectionEED2Ev.exit

if.then.i.i5:                                     ; preds = %if.then.i2
  %vtable.i.i.i6 = load ptr, ptr %connection_.val, align 8
  %vfn.i.i.i7 = getelementptr inbounds i8, ptr %vtable.i.i.i6, i64 16
  %8 = load ptr, ptr %vfn.i.i.i7, align 8
  tail call void %8(ptr noundef nonnull align 8 dereferenceable(113) %connection_.val) #25
  br label %_ZN9grpc_core13RefCountedPtrINS_12_GLOBAL__N_120Chttp2ServerListener16ActiveConnectionEED2Ev.exit

_ZN9grpc_core13RefCountedPtrINS_12_GLOBAL__N_120Chttp2ServerListener16ActiveConnectionEED2Ev.exit: ; preds = %_ZN9grpc_core13RefCountedPtrINS_16HandshakeManagerEED2Ev.exit, %if.then.i2, %if.then.i.i5
  ret void

terminate.lpad:                                   ; preds = %invoke.cont3, %invoke.cont, %entry
  %9 = landingpad { ptr, i32 }
          catch ptr null
  %10 = extractvalue { ptr, i32 } %9, 0
  tail call void @__clang_call_terminate(ptr %10) #24
  unreachable
}